target datalayout = "e-m:e-p270:32:32-p271:32:32-p272:64:64-i64:64-i128:128-f80:128-n8:16:32:64-S128"
target triple = "x86_64-pc-linux-gnu"

%struct._zend_refcounted_h = type { i32, %union.anon }
%union.anon = type { i32 }
%struct._zend_string = type { %struct._zend_refcounted_h, i64, i64, [1 x i8] }

@.str.169 = private unnamed_addr constant [59 x i8] c"opcache.memory_consumption is set below the required 8MB.\0A\00", align 1

; Function Attrs: nounwind uwtable
define internal i32 @OnUpdateMemoryConsumption(ptr noundef %0, ptr noundef %1, ptr noundef %2, ptr noundef %3, ptr noundef %4, i32 noundef %5) #0 {
  %7 = alloca i32, align 4
  %8 = alloca ptr, align 8
  %9 = alloca ptr, align 8
  %10 = alloca ptr, align 8
  %11 = alloca ptr, align 8
  %12 = alloca ptr, align 8
  %13 = alloca i32, align 4
  %14 = alloca ptr, align 8
  %15 = alloca i64, align 8
  store ptr %0, ptr %8, align 8
  store ptr %1, ptr %9, align 8
  store ptr %2, ptr %10, align 8
  store ptr %3, ptr %11, align 8
  store ptr %4, ptr %12, align 8
  store i32 %5, ptr %13, align 4
  %16 = load ptr, ptr %11, align 8
  %17 = load ptr, ptr %10, align 8
  %18 = ptrtoint ptr %17 to i64
  %19 = getelementptr inbounds i8, ptr %16, i64 %18
  store ptr %19, ptr %14, align 8
  %20 = load ptr, ptr %9, align 8
  %21 = getelementptr inbounds %struct._zend_string, ptr %20, i32 0, i32 3
  %22 = getelementptr inbounds [1 x i8], ptr %21, i64 0, i64 0
  %23 = call i32 @atoi(ptr noundef %22) #11
  %24 = sext i32 %23 to i64
  store i64 %24, ptr %15, align 8
  %25 = load i64, ptr %15, align 8
  %26 = icmp slt i64 %25, 8
  br i1 %26, label %27, label %28

27:                                               ; preds = %6
  call void (i32, ptr, ...) @zend_accel_error(i32 noundef 2, ptr noundef @.str.169)
  store i32 -1, ptr %7, align 4
  br label %43

28:                                               ; preds = %6
  %29 = load i64, ptr %15, align 8
  %30 = icmp sgt i64 %29, 8796093022207
  %31 = xor i1 %30, true
  %32 = xor i1 %31, true
  %33 = zext i1 %32 to i32
  %34 = sext i32 %33 to i64
  %35 = icmp ne i64 %34, 0
  br i1 %35, label %36, label %38

36:                                               ; preds = %28
  %37 = load ptr, ptr %14, align 8
  store i64 9223372036853727232, ptr %37, align 8
  br label %42

38:                                               ; preds = %28
  %39 = load i64, ptr %15, align 8
  %40 = mul nsw i64 %39, 1048576
  %41 = load ptr, ptr %14, align 8
  store i64 %40, ptr %41, align 8
  br label %42

42:                                               ; preds = %38, %36
  store i32 0, ptr %7, align 4
  br label %43

43:                                               ; preds = %42, %27
  %44 = load i32, ptr %7, align 4
  ret i32 %44
}