; Function Attrs: nounwind uwtable
define internal noundef i32 @OnUpdateMemoryConsumption(ptr nocapture readnone %0, ptr nocapture noundef readonly %1, ptr noundef %2, ptr nocapture noundef writeonly %3, ptr nocapture readnone %4, i32 %5) #0 {
  %7 = getelementptr inbounds i8, ptr %1, i64 24
  %8 = tail call i32 @atoi(ptr nocapture noundef nonnull %7) #15
  %9 = icmp slt i32 %8, 8
  br i1 %9, label %10, label %11

10:                                               ; preds = %6
  tail call void (i32, ptr, ...) @zend_accel_error(i32 noundef 2, ptr noundef nonnull @.str.169) #14
  br label %16

11:                                               ; preds = %6
  %12 = zext nneg i32 %8 to i64
  %13 = ptrtoint ptr %2 to i64
  %14 = getelementptr inbounds i8, ptr %3, i64 %13
  %15 = shl nuw nsw i64 %12, 20
  store i64 %15, ptr %14, align 8
  br label %16

16:                                               ; preds = %11, %10
  %.0 = phi i32 [ -1, %10 ], [ 0, %11 ]
  ret i32 %.0
}